(lp1
(lp2
S'Bazzani L., Cristani M., Paggetti G., Tosato D., Menegaz G., Murino V. (2012) Analyzing groups: a social signaling perspective, Video Analytics for Business Intelligence, vol. 409, pp. 271-305'
p3
aS'Social Signal Processing'
p4
aa(lp5
S'Tosato D., Spera M., Cristani M., Murino V. (2013) Characterizing humans on Riemannian manifolds, IEEE Transactions on Pattern Analysis and Machine Intelligence, 0162-8828'
p6
aS'Social Signal Processing'
p7
aa(lp8
S'Bicego M., Ulas A., Castellani U., Perina A., Murino V., Martins A., Aguiar P. M. Q., Figueiredo M.  (2013) Combining information theoretic kernels with generative embeddings for classification, Neurocomputing, vol. 101, pp. 161-169'
p9
aS'Machine Learning'
p10
aa(lp11
S'Cristani M., Raghavendra R., Del Bue A., Murino V. (2013) Human Behavior Analysis in Video Surveillance: a Social Signal Processing Perspective, Neurocomputing, vol. 100, pp. 86-97'
p12
aS'Social Signal Processing'
p13
aa(lp14
S'Zappella L., Del Bue A., Llado X., Salvi J. (2013) Joint estimation of segmentation and structure from motion, Computer Vision and Image Understanding, vol. 117, (no. 2), pp. 113-129, 1077-3142'
p15
aS'3D Modeling and Analysis'
p16
aa(lp17
S'Ha Quang M., Wiskott L. (2013) Multivariate slow feature analysis and decorrelation filtering for blind source separation, IEEE Transactions on Image Processing, 1057-7149'
p18
aS'Machine Learning'
p19
aa(lp20
S'Palmese M., Trucco A. (2013) Pruned Chirp Zeta Transform Beamforming for 3-D Imaging With Sparse Planar Arrays, IEEE Journal of Oceanic Engineering, vol. 38, pp. 6, 0364-9059'
p21
aS'Acoustic Signal Processing'
p22
aa(lp23
S'Bazzani L., Cristani M., Murino V. (2013) Symmetry-Driven Accumulation of Local Features for Human Characterization and Re-identification, Computer Vision and Image Understanding, vol. 117, (no. 2), pp. 130-144, 1077-3142'
p24
aS'Video Analytics'
p25
aa(lp26
S'Trucco E., Ruggeri A., Karnowski T., Giancardo L., Chaum E., Hubschman J. P., al-Diri B., Cheung C., Wong D., Abramoff M., Lim G., Kumar D., Burlina P., Bressler N. M., Jelinek H., Meriaudeau F., Quellec G., MacGillivray T., Dhillon B. (2013) Validating Retinal Fundus Image Analysis Algorithms: Issues and a Proposal, Investigative Ophthalmology & Visual Science, 0146-0404'
p27
aS'Structural and Functional Brain Connectivity Analysis'
p28
aa(lp29
S'Crocco M., Del Bue A., Murino V. (2012) A Bilinear Approach to the Position Self-Calibration of Multiple Sensors, IEEE Transactions on Signal Processing, vol. 60, (no. 2), pp. 660-673'
p30
aS'Acoustic Signal Processing'
p31
aa(lp32
S'Sciallero C., Paradossi G., Trucco A. (2012) A Preliminary In Vitro Assessment of Polymer-Shelled Microbubbles in Contrast-Enhanced Ultrasound Imaging, Ultrasonics, vol. 52, (no. 3), pp. 456-464, Elsevier'
p33
aS'Acoustic Signal Processing'
p34
aa(lp35
S'Sedda A., Manfredi V., Bottini G., Cristani M., Murino V. (2012) Automatic human interaction understanding: lessons from a multidisciplinary approach, Frontiers in Human Neuroscience, vol. 6, 1662-5161'
p36
aS'Social Signal Processing'
p37
aa(lp38
S'Del Bue A., Xavier J., Agapito L., Paladini M. (2012) Bilinear modeling via Augmented Lagrange Multipliers (BALM), IEEE Transactions on Pattern Analysis and Machine Intelligence, vol. 34, (no.  8), pp. 1496 -1508, IEEE, 0162-8828'
p39
aS'3D Modeling and Analysis'
p40
aa(lp41
S'Nock R., Piro P., Nielsen F., Bel Haj Ali W., Barlaud M. (2012) Boosting k-NN for Categorization of Natural Scenes, International Journal of Computer Vision, vol. 100, (no. 3), pp. 294-314, Springer, 0920-5691'
p42
aS'Machine Learning'
p43
aa(lp44
S'Castellani U., Rossato E., Murino V., Bellani M., Rambaldelli G., Perlini C., Tomelleri L., Tansella M., Brambilla M. (2012) Classification of schizophrenia using feature-based morphometry, Journal of Neural Transmission, vol. 119, (no. 3), pp. 395-404'
p45
aS'Structural and Functional Brain Connectivity Analysis'
p46
aa(lp47
S'Pesarin A., Cristani M., Murino V., Vinciarelli A. (2012) Conversation Analysis at Work: Detection of Conflict in Competitive Discussions through Semi-Automatic Turn-Organization Analysis, Cognitive Processing, vol. 13, pp. 533-540, 1612-4782'
p48
aS'Social Signal Processing'
p49
aa(lp50
S'Perina A., Cristani M., Castellani U., Murino V., Jojic N. (2012) Free energy score spaces: using generative information in discriminative classifiers, IEEE Transactions on Pattern Analysis and Machine Intelligence, vol. 34, (no. 7), pp. 1249-1262, 0162-8828'
p51
aS'Machine Learning'
p52
aa(lp53
S'Bisignano P., Lambruschini C., Bicego M., Murino V., Favia A. D., Cavalli A. (2012) In Silico Deconstruction of ATP-Competitive Inhibitors of Glycogen Synthase Kinase-3b, Journal of Chemical Information and Modeling, pp. 3233-3244'
p54
aS'In-Vitro Neuronal Network Analysis'
p55
aa(lp56
S'Bicego M., Lovato P., Perina A., Fasoli M., Delledonne M., Pezzotti M., Polverari A., Murino V.  (2012) Investigating Topic Models Capabilities in Expression Microarray Data Classification, IEEE/ACM Transactions on Computational Biology and Bioinformatics, vol. 9, (no. 6), pp.  1831-1836, 1545-5963'
p57
aS'Other works'
p58
aa(lp59
S'Piro P., Nock R., Nielsen F., Barlaud M. (2012) Leveraging k-NN for generic classification boosting, Neurocomputing, vol. 80'
p60
aS'Machine Learning'
p61
aa(lp62
S'Brayda L., Chellali R. (2012) Measuring Human-Robots Interactions, International Journal of Social Robotics, pp. 1-3'
p63
aS'Sensor and Data Fusion, Mobile Sensing'
p64
aa(lp65
S'Bazzani L., Cristani M., Perina A., Murino V. (2012) Multiple-shot person re-identification by chromatic and epitomic analyses, Pattern Recognition Letters, vol. 33, (no. 7), pp. 898-903'
p66
aS'Video Analytics'
p67
aa(lp68
S'Paladini M., Del Bue A., Xavier J., Agapito L., Stosic M, Dodig M (2012) Optimal Metric Projections for Deformable and Articulated Structure-from-Motion, International Journal of Computer Vision, vol.  96, (no. 2), pp. 252-276, Springer, 0920-5691'
p69
aS'3D Modeling and Analysis'
p70
aa(lp71
S'Sangineto E. (2012) Pose and Expression Independent Facial Landmark Localization Using Dense-SURF and the Hausdorff Distance, IEEE Transactions on Pattern Analysis and Machine Intelligence, 0162-8828'
p72
aS'Video Analytics'
p73
aa(lp74
S'Sangineto E., Cupelli M. (2012) Real-time viewpoint-invariant hand localization with cluttered backgrounds, Image and Vision Computing, vol. 30, (no. 1), pp. 26-37, 0262-8856'
p75
aS'Video Analytics'
p76
aa(lp77
S'Bazzani L., Cristani M., Tosato D., Farenzena M., Paggetti G., Menegaz G., Murino V. (2012) Social interactions by visual focus of attention in a three-dimensional environment, Expert Systems, 0266-4720'
p78
aS'Social Signal Processing'
p79
aa(lp80
S'Perina A., Jojic N., Cristani M., Murino V. (2012) Stel Component Analysis: Joint Segmentation, Modeling and Recognition of Objects Classes, International Journal of Computer Vision, vol. 100, (no. 3), pp. 241-260, 0920-5691'
p81
aS'Video Analytics'
p82
aa(lp83
S'Crocco M., Trucco A. (2012) Stochastic and Analytic Optimization of Sparse Aperiodic Arrays and Broadband Beamformers with Robust Superdirective Patterns, IEEE Transactions on Audio Speech and Language Processing, vol. 20, (no. 9), pp. 2433-2447, 1558-7916'
p84
aS'Acoustic Signal Processing'
p85
aa(lp86
S'Campus C., Brayda L., De Carli F., Chellali R., Fama F., Bruzzo C., Lucagrossi L., Rodriguez G.  (2012) Tactile exploration of virtual objects for blind and sighted people: the role of beta 1 EEG band in sensory substitution and supra-modal mental mapping, Journal of Neurophysiology, vol. 107, (no.  10), pp. 2713-2729, 0022-3077'
p87
aS'Structural and Functional Brain Connectivity Analysis'
p88
aa(lp89
S'Fasoli M., Dal Santo S., Zenoni S., Tornielli G. B., Farina L., Zamboni A., Porceddu A., Venturini L., Bicego M., Murino V., Ferrarini A., Delledonne M., Pezzotti M. (2012) The Grapevine Expression Atlas Reveals a Deep Transcriptome Shift Driving the Entire Plant into a Maturation Program, The Plant Cell, 1040-4651'
p90
aS'Other works'
p91
aa(lp92
S'Sciallero C., Crocco M., Trucco A. (2011) A method for estimating the microbubble concentration in contrast-enhanced ultrasound imaging, Measurement Science and Technology, vol. 22, (no. 11), pp.  9'
p93
aS'Acoustic Signal Processing'
p94
aa(lp95
S'Pillonetto G., Ha Quang M., Chiuso A. (2011) A New Kernel-based Approach for Nonlinear System Identification, IEEE Transactions on Automatic Control, vol. 56, (no. 12), pp. 2825-2840'
p96
aS'Machine Learning'
p97
aa(lp98
S'Renna I., Chellali R., Achard C. (2011) Combination of annealing particle filter and belief propagation for 3D upper body tracking, Applied Bionics and Biomechanics Journal, vol. 8, pp.  14-28'
p99
aS'Sensor and Data Fusion, Mobile Sensing'
p100
aa(lp101
S'Crocco M., Trucco A. (2011) Design of Robust Superdirective Arrays with a Tunable Tradeoff between Directivity and Frequency-Invariance, IEEE Transactions on Signal Processing, vol. 59, (no. 5), pp. 2169-2181, IEEE'
p102
aS'Acoustic Signal Processing'
p103
aa(lp104
S'Ulas A., Duin R. P. W., Castellani U., Loog M., Mirtuono P., Bicego M., Murino V., Bellani M., Cerruti S., Tansella M., Brambilla P. (2011) Dissimilarity-Based Detection of Schizophrenia, International Journal of Imaging Systems and Technology, vol. 21, (no. 2), pp. 179-192'
p105
aS'Structural and Functional Brain Connectivity Analysis'
p106
aa(lp107
S'Cristani M., Pesarin A., Drioli C., Tavano A., Perina A., Murino V. (2011) Generative Modeling and Classification of Dialogs by a Low-level Turn-taking Feature, Pattern Recognition, vol. 44, (no. 8), pp. 1785-1800'
p108
aS'Social Signal Processing'
p109
aa(lp110
S'Cella Zanacchi F., Lavagnino Z., Perrone Donnorso M., Del Bue A., Furia L., Faretta M., Diaspro A.  (2011) Live-cell 3D super-resolution imaging in thick biological samples, Nature Methods, vol. 8, (no.  12), pp. 1047-1049'
p111
aS'3D Modeling and Analysis'
p112
aa(lp113
S'Torre B., Lorenzoni M., Bicego M., Cristani M., Murino V., Diaspro A. (2011) PCA in Dynamic Force Spectroscopy, Imaging & Microscopy, (no. 4)'
p114
aS'Other works'
p115
aa(lp116
S'Renna I., Chellali R., Achard C. (2011) Real and Simulated Upper Body Tracking with Annealing Particle Filter and Belief Propagation for Human-Robot Interaction, International Journal of Humanoid Robotics, vol. 8, (no. 1), pp. 127-146, 0219-8436'
p117
aS'Sensor and Data Fusion, Mobile Sensing'
p118
aa(lp119
S'Llado X., Del Bue A., Oliver A., Salvi J., Agapito L. (2011) Reconstruction of Non-rigid 3D Shapes from Stereo-motion, Pattern Recognition Letters, vol. 32, (no. 7), pp. 1020-1028'
p120
aS'3D Modeling and Analysis'
p121
aa(lp122
S'Castellani U., Cristani M., Murino V. (2011) Statistical 3D shape analysis by local generative descriptors, IEEE Transactions on Pattern Analysis and Machine Intelligence, vol. 33, (no. 12), pp.  2555-2560, IEEE Computer Society, 0162-8828'
p123
aS'3D Modeling and Analysis'
p124
aa(lp125
S'Marzotto R., Zoratti P., Bagni D., Colombari A., Murino V. (2010) A real-time versatile roadway path extraction and tracking on an FPGA platform, Computer Vision and Image Understanding, vol. 114, (no. 11), pp. 1164-1179, Elsevier Science Inc., 1077-3142'
p126
aS'Video Analytics'
p127
aa(lp128
S'Cristani M., Farenzena M., Bloisi D., Murino V. (2010) Background Subtraction for Automated Multisensor Surveillance: a Comprehensive Review, EURASIP Journal on Advances in Signal Processing, Hindawi Publishing Corp.'
p129
aS'Video Analytics'
p130
aa(lp131
S'Torre B., Bicego M., Cristani M., Murino V., Diaspro A., Cingolani R. (2010) Combination of Atomic Force Microscopy and Principal Component Analysis As a General Method for Direct Recognition of Functional and Structural Domains in Nanonocomposite Materials, Microscopy Research and Technique, vol. 73, (no. 10), pp. 973-981, 1097-0029'
p132
aS'Other works'
p133
aa(lp134
S'Perina A., Cristani M., Murino V. (2010) Learning natural scene categories by selective multi-scale feature extraction, Image and Vision Computing, vol. 28, (no. 6), pp. 927-939, 0262-8856'
p135
aS'Machine Learning'
p136
aa(lp137
S'Llado X., Del Bue A., Agapito L. (2010) Non-rigid metric reconstruction from perspective cameras, Image and Vision Computing, vol. 28, (no. 9), pp. 1339 - 1353, Butterworth-Heinemann Newton, 0262-8856'
p138
aS'3D Modeling and Analysis'
p139
aa(lp140
S'Nabi Jafri S. R.U., Chellali R. (2013) A Distributed Multi Robot SLAM System for Environment Learning, 2013 IEEE Workshop on Robotic Intelligence in Informationally Structured Space, Singapore'
p141
aS'Sensor and Data Fusion, Mobile Sensing'
p142
aa(lp143
S'Ha Quang M., Bazzani L., Murino V. (2013) A Unifying Framework for Vector-valued Manifold Regularization and Multi-view Learning, 30th International Conference on Machine Learning, Atlanta, Georgia, USA'
p144
aS'Machine Learning'
p145
aa(lp146
S'Meddahi A., Chellali R. (2013) Adaptive and Safe Mobile Manipulator for Human Robot Interaction, 2013 IEEE Workshop on Robotic Intelligence in Informationally Structured Space, Singapore'
p147
aS'Sensor and Data Fusion, Mobile Sensing'
p148
aa(lp149
S'Ullo S., Castellani U., Sona D., Del Bue A., Maccione A., Berdondini L., Murino V. (2013) Neuronal Network Structural Connectivity Estimation by Probabilistic Features and Graph Heat Kernels, IEEE International Symposium on Biomedical Imaging: from Nano to Macro, San Francisco, CA, USA'
p150
aS'Structural and Functional Brain Connectivity Analysis'
p151
aa(lp152
S'Karnowski T., Giancardo L., Li Y., Tobin Jr K. W., Chaum E. (2013) Retina Image Analysis and Ocular Telehealth: The Oak Ridge National Laboratory-Hamilton Eye Institute Case Study, 35th IEEE Engineering in Medicine and Biology Society Conference, Osaka, Japan'
p153
aS'Other works'
p154
aa(lp155
S"Trucco A., Traverso F, Crocco M. (2013) Robust Superdirective End-Fire Arrays, pp. 6, OCEANS'13 MTS/IEEE, Bergen, Norway"
p156
aS'Acoustic Signal Processing'
p157
aa(lp158
S'Traverso F, Trucco A. (2013) Simulation of non-Gaussian noise radiated by underwater vehicle, 1st International Conference and Exhibition on Underwater Acoustics, Corfu, Greece'
p159
aS'Acoustic Signal Processing'
p160
aa(lp161
S'Giancardo L., Meriaudeau F., Karnowski T., Tobin Jr K. W., Chaum E. (2013) Validation of Microaneurysm-based Diabetic Retinopathy Screening across Retina Fundus Datasets, 26th IEEE International Symposium on Computer-Based Medical Systems, Porto, Portugal'
p162
aS'Structural and Functional Brain Connectivity Analysis'
p163
aa(lp164
S'Crocco M., Del Bue A., Barbosa I. B., Murino V. (2012) A Closed Form Solution for the Self-Calibration of Heterogeneous Sensors, 23rd British Machine Vision Conference (BMVC 2012), Guildford, UK'
p165
aS'3D Modeling and Analysis'
p166
aa(lp167
S'Crocco M., Del Bue A., Bustreo M., Murino V. (2012) A Closed Form Solution to the Microphone Position Self-Calibration Problem, pp. 2597-2600, 37th International Conference on Acoustics, Speech, and Signal Processing (ICASSP 2012), Kyoto, Japan'
p168
aS'Acoustic Signal Processing'
p169
aa(lp170
S'Ullo S., Del Bue A., Maccione A., Berdondini L., Murino V. (2012) A joint structural and functional analysis of in-vitro neuronal networks, 19th IEEE International Conference on Image Processing (ICIP 2012), Orlando, FL, USA'
p171
aS'Structural and Functional Brain Connectivity Analysis'
p172
aa(lp173
S'San Biagio M., Ulas A., Crocco M., Cristani M., Castellani U., Murino V. (2012) A Multiple Kernel Learning Approach to Multi-Modal Pedestrian Classification, 21st International Conference on Pattern Recognition (ICPR 2012), Tsukuba Science City, JAPAN'
p174
aS'Sensor and Data Fusion, Mobile Sensing'
p175
aa(lp176
S'Sciallero C., Trucco A. (2012) A preliminary ultrasound assessment of multimodality contrast agents, pp. 154-157, IEEE 7th Int. Symposium on Medical Measurements and Applications (MeMeA 2012), Budapest - Hungary'
p177
aS'Acoustic Signal Processing'
p178
aa(lp179
S'Ha Quang M., Cristani M., Perina A., Murino V. (2012) A regularized spectral algorithm for Hidden Markov Models with applications in computer vision, pp. 2384 - 2391, 25th IEEE Conference on Computer Vision and Pattern Recognition (CVPR 2012), Providence, RI, USA'
p180
aS'Machine Learning'
p181
aa(lp182
S'Carneiro G., da Silva N. P., Del Bue A., Costeira J. P. (2012) Artistic image classification: an analysis on the PRINTART database, 12th European Conference on Computer Vision (ECCV 2012), Florence, Italy'
p183
aS'Machine Learning'
p184
aa(lp185
S'Giancardo L., Sona D., Gozzi A., Bifone A., Murino V., Migliarini S., Pacini G., Pelosi B., Pasqualetti M. (2012) Automatic Tractography Analysis through Sparse Networks in Case-Control Studies, 2nd International Workshop on Pattern Recognition in NeuroImaging (PRNI 2012), London, UK'
p186
aS'Structural and Functional Brain Connectivity Analysis'
p187
aa(lp188
S'Ulas A., Castellani U., Murino V., Bellani M., Tansella M., Brambilla P. (2012) Biomarker evaluation by Multiple Kernel Learning for Schizophrenia Detection, pp. 89-92, 2nd International Workshop on Pattern Recognition in NeuroImaging (PRNI 2012), London, UK'
p189
aS'Machine Learning'
p190
aa(lp191
S'Bel Haj Ali W., Giampaglia D., Barlaud M., Piro P., Nock R., Pourcher T. (2012) Classification of biological cells using bio-inspired descriptors, 21st International Conference on Pattern Recognition (ICPR 2012), Tsukuba Science City, JAPAN'
p192
aS'Machine Learning'
p193
aa(lp194
S'Bjornsdotter M., Sona D., Rosenthal S., Dauwels J. (2012) Clustered subsampling for clinically informed diagnostic brain mapping, 15th International Conference on Information Fusion (FUSION 2012), Singapore'
p195
aS'Structural and Functional Brain Connectivity Analysis'
p196
aa(lp197
S'Sabzevari R., Del Bue A., Murino V. (2012) Combining Structure from Motion and Photometric Stereo: A Piecewise Formulation, Eurographics 2012, Cagliari, Italy'
p198
aS'3D Modeling and Analysis'
p199
aa(lp200
S'(2012) Computer Vision - ECCV 2012. Workshops and Demonstrations, vol. 1, 12th European Conference on Computer Vision (ECCV 2012), Florence, Italy'
p201
aS'Other works'
p202
aa(lp203
S'(2012) Computer Vision - ECCV 2012. Workshops and Demonstrations, vol. 2, 12th European Conference on Computer Vision (ECCV 2012), Florence, Italy'
p204
aS'Other works'
p205
aa(lp206
S'Cristani M., Roffo G., Segalin C., Bazzani L., Vinciarelli A., Murino V. (2012) Conversationally-inspired Stylometric Features for Authorship Attribution in Instant Messaging, ACM Multimedia 2012 (MM 2012), Nara, Japan'
p207
aS'Social Signal Processing'
p208
aa(lp209
S'Bazzani L., Cristani M., Murino V. (2012) Decentralized particle filter for joint individual-group tracking, 25th IEEE Conference on Computer Vision and Pattern Recognition (CVPR 2012), Providence, RI, USA'
p210
aS'Video Analytics'
p211
aa(lp212
S'Chellali R., Renna I., Bernier E. (2012) Detection et Reconnaissance des Gestes Emblematiques, pp. 220-228, Reconnaissance des Formes et Intelligence Artificielle (RFIA 2012), Lyon, France'
p213
aS'Sensor and Data Fusion, Mobile Sensing'
p214
aa(lp215
S'Wykowska A., Chellali R., Al-Amin M., Muller H. J. (2012) Does Observing Artificial Robotic Systems Influence Human Perceptual Processing in the same Way as Observing Humans?, International Confernce on Social Robotics (ICSR 2012), Chengdu, China'
p216
aS'Sensor and Data Fusion, Mobile Sensing'
p217
aa(lp218
S'Chellali R., Renna I. (2012) Emblematic gestures recognition, 11th Biennial Conference on Engineering Systems Design and Analysis ESDA 2012, Nantes, Francia, july 2-4 2012'
p219
aS'Sensor and Data Fusion, Mobile Sensing'
p220
aa(lp221
S'Sciallero C., Crocco M., Trucco A. (2012) Energy and Feature-Based Strategies for Estimating the Contrast Agent Concentration in Ultrasound Medical Imaging, 25th IEEE International Symposium on Computer-Based Medical Systems (CBMS 2012), Rome, Italy'
p222
aS'Acoustic Signal Processing'
p223
aa(lp224
S'Hennig S., Chellali R. (2012) Expressive Synthetic Voices: Considerations for Human Robot Interaction, 21st IEEE International Symposium on Robot and Human Interactive Communication (Ro-Man 2012), Paris, France'
p225
aS'Social Signal Processing'
p226
aa(lp227
S'Piro P., Pisani P., Bottegoni G., Sona D., Rocchia W., Cavalli A., Murino V. (2012) Fitting and simplification of mixtures for clustering conformational populations of small organic molecules, International Conference on Chemical and Biological Engineering (ICCBE 2012), Stockholm, Sweden'
p228
aS'Machine Learning'
p229
aa(lp230
S'Carli A., Figueiredo M., Bicego M., Murino V. (2012) Generative embeddings based on Rician mixtures: Application to kernel-based discriminative classification of magnetic resonance images, vol. 1, pp. 113-122, 1st International Conference on Pattern Recognition Applications and Methods'
p231
aS'Machine Learning'
p232
aa(lp233
S'Piro P., Sona D., Murino V. (2012) Inner Product Tree for improved Orthogonal Matching Pursuit, 21st International Conference on Pattern Recognition (ICPR 2012), Tsukuba Science City, JAPAN'
p234
aS'Machine Learning'
p235
aa(lp236
S'Martelli S., Cristani M., Bazzani L., Tosato D., Murino V. (2012) Joining feature-based and similarity-based pattern description paradigms for object detection, 21st International Conference on Pattern Recognition (ICPR 2012), Tsukuba Science City, JAPAN'
p237
aS'Video Analytics'
p238
aa(lp239
S'Nabi Jafri S. R.U., Li Z., Chellali R. (2012) Laser only Feature based Multi Robot SLAM, 12th International Conference on Control Automation Robotics & Vision (ICARCV 2012), Guangzhou, China'
p240
aS'Sensor and Data Fusion, Mobile Sensing'
p241
aa(lp242
S'Sangineto E., Cristani M., Del Bue A., Murino V. (2012) Learning Discriminative Spatial Relations for Detector Dictionaries: an Application to Pedestrian Detection, 12th European Conference on Computer Vision (ECCV 2012), Florence, Italy'
p243
aS'Video Analytics'
p244
aa(lp245
S'Salvagnini P., Salamin H., Cristani M., Vinciarelli A., Murino V. (2012) Learning how to teach from "videolectures": automatic prediction of lecture ratings based on teacher\'s nonverbal behavior, 3rd IEEE International Conference on Cognitive Infocommunications (CogInfoCom 2012), Kosice, Slovakia'
p246
aS'Social Signal Processing'
p247
aa(lp248
S'San Biagio M., Crocco M., Cristani M., Martelli S., Murino V. (2012) Low-level Multimodal Integration on Riemannian Manifolds for Automatic Pedestrian Detection, 15th International Conference on Information Fusion (FUSION 2012), Singapore'
p249
aS'Sensor and Data Fusion, Mobile Sensing'
p250
aa(lp251
S'Sabzevari R., Del Bue A., Murino V. (2012) Multi-view Photometric Stereo using Semi-isometric Mappings, 3DimPVT 2012, Zurich, Switzerland'
p252
aS'3D Modeling and Analysis'
p253
aa(lp254
S'Zanotto M., Bazzani L., Cristani M., Murino V. (2012) Online Bayesian Nonparametrics for Group Detection, 23rd British Machine Vision Conference (BMVC 2012), Guildford, UK'
p255
aS'Social Signal Processing'
p256
aa(lp257
S'Sona D., Avesani P., Magon S., Basso G., Miceli G. (2012) Pairwise Analysis for Longitudinal fMRI Studies, pp. 132-139, 2nd NIPS 2012 Workshop on Machine Learning and Interpretation in NeuroImaging, Springer Berlin / Heidelberg, Lake Tahoe, Nevada, US'
p258
aS'Structural and Functional Brain Connectivity Analysis'
p259
aa(lp260
S'Sabzevari R., Del Bue A., Murino V. (2012) Piecewise single view photometric stereo with multi-view constraints, 19th IEEE International Conference on Image Processing (ICIP 2012), Orlando, FL, USA'
p261
aS'3D Modeling and Analysis'
p262
aa(lp263
S'Barbosa I. B., Cristani M., Del Bue A., Bazzani L., Murino V. (2012) Re-identification with RGB-D sensors, vol. 1, 12th European Conference on Computer Vision (ECCV 2012), Florence, Italy'
p264
aS'Sensor and Data Fusion, Mobile Sensing'
p265
aa(lp266
S'San Biagio M., Crocco M., Cristani M., Murino V. (2012) Recursive Segmentation Based on Higher Order Statistics in Thermal Imaging Pedestrian Detection, 5th International Symposium on Communications, Control and Signal Processing (ISCCSP 2012), Rome, Italy'
p267
aS'Video Analytics'
p268
aa(lp269
S'Giancardo L., Sona D., Scheggia D., Papaleo F., Murino V. (2012) Segmentation and Tracking of Multiple Interacting Mice by Temperature and Shape Information, 21st International Conference on Pattern Recognition (ICPR 2012), Tsukuba Science City, JAPAN'
p270
aS'Mouse Behavior Analysis'
p271
aa(lp272
S"Siles Tapia C., Chellali R. (2012) Simulation of an under-actuated fish-like robot controlled by an adaptive frequency oscillator inside a Karman Vortex Street, IFAC Workshop on Navigation, Guidance and Control of Underwater Vehicles (NGCUV '2012), Killaloe, Ireland"
p273
aS'Sensor and Data Fusion, Mobile Sensing'
p274
aa(lp275
S"Traverso F, Trucco A., Vernazza G (2012) Simulation of non-White and non-Gaussian Underwater Ambient Noise, pp. 10, OCEANS'12 MTS/IEEE, Yeosu, Republic of Korea"
p276
aS'Acoustic Signal Processing'
p277
aa(lp278
S'Martelli S., Cristani M., Murino V. (2012) Stereo-Based Framework for Pedestrian Detection with Partial Occlusion Handling, 9th IEEE International Conference on Advanced Video and Signal-based Surveillance (AVSS), Beijing, China'
p279
aS'Video Analytics'
p280
aa(lp281
S"Lovato P., Perina A., Sebe N., Zandona O., Montagnini A., Bicego M., Cristani M. (2012) Tell Me What You Like and I'll Tell You What You Are: Discriminating Visual Preferences on Flickr Data, 11th Asian Conference on Computer Vision, Daejeon, Korea"
p282
aS'Social Signal Processing'
p283
aa(lp284
S'Bernier E., Chellali R., Thouvenin I. (2012) The mobilar robot, ubiquitous, unobtrusive, augmented reality device, 11th Biennial Conference on Engineering Systems Design and Analysis ESDA 2012, Nantes, Francia, july 2-4 2012'
p285
aS'Sensor and Data Fusion, Mobile Sensing'
p286
aa(lp287
S'Baizid K., Chellali R., Hauptman T. (2012) ViRAT: An Advanced Multi-robots Platform, IEEE Symposium on Industrial Electronics & Applications (ISIEA 2012), Bandung, Indonesia'
p288
aS'Sensor and Data Fusion, Mobile Sensing'
p289
aa(lp290
S'Perina A., Lovato P., Cristani M., Bicego M. (2011) A comparison on score spaces for expression microarray data classification, 6th IAPR International Conference on Pattern Recognition in Bioinformatics (PRIB 2011)'
p291
aS'Machine Learning'
p292
aa(lp293
S'Baglivo L., Del Bue A., Lunardelli M., Setti F., Murino V., De Cecco M. (2011) A method for asteroids 3D surface reconstruction from close approach distances, 8th International Conference on Computer Vision Systems (ICVS 2011), Springer Berlin Heidelberg, Sophia Antipolis, France'
p294
aS'3D Modeling and Analysis'
p295
aa(lp296
S'Satta R., Fumera G., Roli F., Cristani M., Murino V. (2011) A Multiple Component Matching Framework for Person Re-Identification, 16th International Conference on Image Analysis and Processing (ICIAP 2011), Ravenna, Italy'
p297
aS'Video Analytics'
p298
aa(lp299
S'Schuffler P., Ulas A., Murino V. (2011) A multiple kernel learning algorithm for cell nucleus classification of renal cell carcinoma, 16th International Conference on Image Analysis and Processing (ICIAP 2011), Ravenna, Italy'
p300
aS'Machine Learning'
p301
aa(lp302
S'Campus C., Brayda L., Chellali R., Martinoli C., Rodriguez G. (2011) A neurophysiological and behavioral investigation of tactile spatial exploration for sighted and non-sighted adults, vol. 55, (no.  1), pp. 227-231, Human Factors and Ergonomics Society 55th Annual Meeting, September 19-23 2011, Las Vegas, Nevada, USA 2011'
p303
aS'Other works'
p304
aa(lp305
S'Castellani U., Mirtuono P., Murino V., Bellani M., Rambaldelli G., Tansella M., Brambilla P. (2011) A New Shape Diffusion Descriptor For Brain Classification, Lecture Notes in Computer Science, vol.  6892, pp. 426-433, Medical Image Computing and Computer-Assisted Intervention (MICCAI 2011), Springer Berlin Heidelberg, Toronto, Canada, 978-3-540-38625-4'
p306
aS'Structural and Functional Brain Connectivity Analysis'
p307
aa(lp308
S'Raghavendra R., Dorizzi B. (2011) A Novel Adaptive Inertia Particle Swarm Optimization (AIPSO) Algorithm for Improving Multimodal Biometric Recognition, International Conference on Hand-Based Biometrics (ICHB 2011), Hong Kong'
p309
aS'Other works'
p310
aa(lp311
S'Sciallero C., Crocco M., Trucco A., Vernazza G (2011) A regression approach to estimate the ultrasound contrast agent concentration, pp. 202-206, IEEE International Symposium on Medical Measurements and Applications (MEMEA 2011), Bari'
p312
aS'Acoustic Signal Processing'
p313
aa(lp314
S'Raghavendra R., Del Bue A., Cristani M., Murino V. (2011) Abnormal Crowd Behavior Detection by Social Force Optimization, 2nd International Workshop on Human Behavior Understanding (HBU 2011), Amsterdam, Holland'
p315
aS'Social Signal Processing'
p316
aa(lp317
S'Salvagnini P., Cristani M., Del Bue A., Murino V. (2011) An experimental framework for evaluating PTZ tracking algorithms, vol. 6962, 8th International Conference on Computer Vision Systems (ICVS 2011), Springer Berlin Heidelberg, Sophia Antipolis, France'
p318
aS'Video Analytics'
p319
aa(lp320
S'Bicego M., Favia A. D., Bisignano P., Cavalli A., Murino V. (2011) An innovative protocol for comparing protein binding sites via atomic grid maps, International Conference on Knowledge Discovery and Information Retrieval (KDIR 2011)'
p321
aS'Clustering Analysis for drug discovery'
p322
aa(lp323
S'Brayda L., Campus C., Chellali R., Rodriguez G., Martinoli C. (2011) An investigation of search behaviour in a tactile exploration task for sighted and non-sighted adults, International conference on Human factors in computing systems, ACM, Vancouver, Canada'
p324
aS'Sensor and Data Fusion, Mobile Sensing'
p325
aa(lp326
S"Hennig S. (2011) Candidacy of Physiological Measurements for Implicit Control of Emotional Speech Synthesis, Proceedings of Affective Computing and Intelligent Interaction (ACII), vol. 6975, pp. 208-215, 4th international conference on Affective computing and intelligent interaction (ACII '11), Springer, Memphis, Tennessee, USA, 978-3-642-24570-1"
p327
aS'Social Signal Processing'
p328
aa(lp329
S'Smeraldi F., Bicego M., Cristani M., Murino V. (2011) CLOOSTING: CLustering data with bOOSTING, 10th International Workshop On Multiple Classifier Systems (MCS 2011)'
p330
aS'Machine Learning'
p331
aa(lp332
S'Gonen M., Ulas A., Schuffler P., Castellani U., Murino V. (2011) Combining Data Sources Nonlinearly for Cell Nucleus Classification of Renal Cell Carcinoma, pp. 250-260, 1st International Workshop on Similarity-based Pattern Analysis and Recognition (SIMBAD 2011)'
p333
aS'Machine Learning'
p334
aa(lp335
S'Cheng D. S., Cristani M., Stoppa M., Bazzani L., Murino V. (2011) Custom Pictorial Structures for Re-identification, 22nd British Machine Vision Conference (BMVC 2011), Dundee, UK'
p336
aS'Video Analytics'
p337
aa(lp338
S'Nabi Jafri S. R.U., Brayda L., Chellali R. (2011) Distributed Feature based RBPF Multi Robot SLAM, pp. 1066-1071, IEEE Robio 2011 International Conference on Robotics and Biomimetics, Phuket,Thailand,7-11 Dec 2011'
p339
aS'Sensor and Data Fusion, Mobile Sensing'
p340
aa(lp341
S'Naceri A., Hoinville T., Chellali R., Ortiz J., Hennig S. (2011) Do observers perceive depth in reaching task within virtual environment?, ASME 2011 World Conference on Innovative Virtual Reality (WINVR 2011)'
p342
aS'Other works'
p343
aa(lp344
S'Martelli S., Tosato D., Cristani M., Murino V. (2011) Fast FPGA-Based Architecture for Pedestrian Detection Based on Covariance Matrices, 18th IEEE International Conference on Image Processing (ICIP 2011), Brussel, Belgium'
p345
aS'Video Analytics'
p346
aa(lp347
S'Raghavendra R. (2011) Feature Level Fusion of Face and Palmprint using Gaussian Mixture Model : Application to Single Sample Analysis, pp. 251-258, International Conference on Biometrics Special Interest Group (BIOSIG 2011), Darmstadt, Germany'
p348
aS'Other works'
p349
aa(lp350
S'Martelli S., Tosato D., Cristani M., Murino V. (2011) FPGA-Based Pedestrian Detection Using Array of Covariance Features, ACM/IEEE International Conference on Distributed Smart Cameras (ICDSC 2011), Gent, Belgium'
p351
aS'Video Analytics'
p352
aa(lp353
S'Chellali R., Pham H. P. (2011) Frequency Modulation Based Vibrotactile Feedback vs Visual Feedback in a Multimodal Interface for 3D Pointing Tasks in Teleoperation, IEEE International Conference on Robotics and Biomimetics-ROBIO 2011, Phuket, Tahiland, December 07-11'
p354
aS'3D Modeling and Analysis'
p355
aa(lp356
S'Ulas A., Castellani U., Murino V., Bellani M., Tansella M., Brambilla P. (2011) Heat Diffusion Based Dissimilarity Analysis for Schizophrenia Classification, 6th IAPR International Conference on Pattern Recognition in Bioinformatics (PRIB 2011)'
p357
aS'Structural and Functional Brain Connectivity Analysis'
p358
aa(lp359
S'Ulas A., Schuffler P., Bicego M., Castellani U., Murino V. (2011) Hybrid Generative-Discriminative Nucleus Classification of Renal Cell Carcinoma, pp. 77-78, 1st International Workshop on Similarity-based Pattern Analysis and Recognition (SIMBAD 2011)'
p360
aS'Machine Learning'
p361
aa(lp362
S'Chellali R., Bernier E., Baizid K., Zaoui M. (2011) Interface for multi-robots based video coverage, International Conference on Human-Computer Interaction, Orlando, FL, USA'
p363
aS'Sensor and Data Fusion, Mobile Sensing'
p364
aa(lp365
S'Bazzani L., de Freitas N., Larochelle H., Murino V., Ting J-A (2011) Learning attentional policies for object tracking and recognition in video with deep networks, pp. 937-944, 28th International Conference on Machine Learning (ICML2011), Bellevue, Washington, USA'
p366
aS'Machine Learning'
p367
aa(lp368
S"Cristani M., Pesarin A., Vinciarelli A., Crocco M., Murino V. (2011) Look at Who's Talking: Voice Activity Detection by Automated Gesture Analysis, Workshop on Interactive Human Behavior Analysis in Open or Public Spaces (InterHub 2011), Amsterdam, Holland"
p369
aS'Social Signal Processing'
p370
aa(lp371
S'Maddahi A., Chellali R. (2011) Multi-Criteria Mobile Robot Control: Preliminary work on Manipulating Objects and Avoiding Unpredictable Obstacles, pp. 83-86, IEEE-ICCCA 2011 International Conference on Computer Control and Automation, Jeju'
p372
aS'Sensor and Data Fusion, Mobile Sensing'
p373
aa(lp374
S'Meddahi A., Chellali R., Baizid K. (2011) Multi-Objective Control through Evolutionary Neuro-Controller for Interactive Mobile Robot Manipulator, IEEE Robio 2011 International Conference on Robotics and Biomimetics, Phuket,Thailand,7-11 Dec 2011'
p375
aS'Sensor and Data Fusion, Mobile Sensing'
p376
aa(lp377
S'Ulas A., Castellani U., Mirtuono P., Bicego M., Murino V., Cerruti S., Bellani M., Atzori M., Rambaldelli G., Tansella M., Brambilla P. (2011) Multimodal Schizophrenia Detection by Multiclassification Analysis, 16th Iberoamerican Congress on Pattern Recognition (CIARP 2011), Pucon, Chile'
p378
aS'Structural and Functional Brain Connectivity Analysis'
p379
aa(lp380
S'Del Bue A., Bartoli A. (2011) Multiview 3D Warps, pp. 675-682, 13th IEEE International Conference on Computer Vision (ICCV 2011), Barcelona, Spain.'
p381
aS'3D Modeling and Analysis'
p382
aa(lp383
S'Raghavendra R., Del Bue A., Cristani M., Murino V. (2011) Optimizing Interaction Force for Global Anomaly Detection in Crowded Scenes, pp. 136-143, 1st IEEE Workshop on Modeling, Simulation and Visual Analysis of Large Crowds, Barcelona, Spain'
p384
aS'Social Signal Processing'
p385
aa(lp386
S'Traverso F, Crocco M., Trucco A., Vernazza G (2011) Oversteering of End-Fire Arrays with Frequency-Invariant Beam Patterns, pp. 1332-1336, 19th European Signal Processing Conference (EUSIPCO 2011), Barcelona, Spain'
p387
aS'Acoustic Signal Processing'
p388
aa(lp389
S'Hoinville T., Naceri A., Ortiz J., Bernier E., Chellali R. (2011) Performances of experienced and novice sportball players in heading virtual spinning soccer balls, pp. 83-86, IEEE Virtual Reality conference 2011, Singapore'
p390
aS'Other works'
p391
aa(lp392
S'Bicego M., Ulas A., Schuffler P., Castellani U., Murino V., Martins A., Aguiar P. M. Q., Figueiredo M.  (2011) Renal Cancer Cell Classification Using Generative Embeddings and Information Theoretic Kernels, pp. 75-86, 6th IAPR International Conference on Pattern Recognition in Bioinformatics (PRIB 2011)'
p393
aS'Machine Learning'
p394
aa(lp395
S'Castellani U., Ulas A., Murino V., Bellani M., Rambaldelli G., Tansella M., Brambilla P. (2011) Selecting scales by Multiple Kernel Learning for shape diffusion analysis, Lecture Notes in Computer Science, pp. 148-158, 3rd MICCAI Workshop on Mathematical Foundations of Computational Anatomy (MFCA 2011), Springer Berlin Heidelberg, Toronto, Canada, 978-3-540-38625-4'
p396
aS'Machine Learning'
p397
aa(lp398
S'Zappella L., Del Bue A., Llado X., Salvi J. (2011) Simultaneous motion segmentation and Structure from Motion, pp. 679-684, IEEE Workshop on Applications of Computer Vision (WACV 2011), Kona, Hawaii'
p399
aS'3D Modeling and Analysis'
p400
aa(lp401
S'Ha Quang M., Wiskott L. (2011) Slow feature analysis and decorrelation filtering for separating correlated sources, pp. 866-873, 13th IEEE International Conference on Computer Vision (ICCV 2011), Barcelona, Spain.'
p402
aS'Machine Learning'
p403
aa(lp404
S'Cristani M., Bazzani L., Paggetti G., Fossati A., Tosato D., Del Bue A., Menegaz G., Murino V.  (2011) Social interaction discovery by statistical analysis of F-formations, 22nd British Machine Vision Conference (BMVC 2011), Dundee, UK'
p405
aS'Social Signal Processing'
p406
aa(lp407
S'Sabzevari R., Del Bue A., Murino V. (2011) Structure from Motion and Photometric Stereo for Dense 3D Shape Recovery, pp. 660-669, 16th International Conference on Image Analysis and Processing (ICIAP 2011), Springer-Verlag, Ravenna, Italy'
p408
aS'3D Modeling and Analysis'
p409
aa(lp410
S'Bernier E., Chellali R., Thouvenin I., Blom K. (2011) The ICEA plugin for Virtual Reality, Immersive Creation and Edition of Displacement, SEARIS-IEEE Virtual Reality Conference 2011, Singapore'
p411
aS'Sensor and Data Fusion, Mobile Sensing'
p412
aa(lp413
S'Cristani M., Paggetti G., Vinciarelli A., Bazzani L., Menegaz G., Murino V. (2011) Towards Computational Proxemics: Inferring Social Relations from Interpersonal Distances, pp. 290-297, 3rd IEEE International Conference on Social Computing (SocialCom2011), Boston, USA'
p414
aS'Social Signal Processing'
p415
aa(lp416
S'Traverso F, Crocco M., Trucco A., Vernazza G (2011) Tuning the performance of the superdirective frequency-invariant beamforming applied to end-fire arrays, pp. 1-7, IEEE International Conference Oceans 2011, Santander (Spain)'
p417
aS'Acoustic Signal Processing'
p418
aa(lp419
S'Ha Quang M., Sindhwani V. (2011) Vector-valued Manifold Regularization, 28th International Conference on Machine Learning (ICML 2011), Bellevue, WA, USA'
p420
aS'Machine Learning'
p421
aa(lp422
S'Zanotto M., Ballerini L., Aldridge B., Fisher R. B., Rees J. (2011) Visual cues do not improve skin lesion ABC(D) grading, vol. 7966, Medical Imaging 2011: Image Perception, Observer Performance, and Technology Assessment, SPIE, Lake Buena Vista, Florida, USA'
p423
aS'Other works'
p424
aa(lp425
S'Chellali R., Baizid K. (2011) What maps and what displays for remote situation awareness and ROV localization?, pp. 491-497, International Conference on Human-Computer Interaction, Orlando, FL, USA'
p426
aS'Sensor and Data Fusion, Mobile Sensing'
p427
aa(lp428
S'Bicego M., Martins A., Murino V., Aguiar P. M. Q., Figueiredo M. (2010) 2D Shape Recognition Using Information Theoretic Kernels, pp. 25-28, 20th International Conference on Pattern Recognition (ICPR 2010), IEEE'
p429
aS'Machine Learning'
p430
aa(lp431
S'Perina A., Cristani M., Murino V. (2010) 2LDA: Segmentation for Recognition, pp. 995-998, 20th International Conference on Pattern Recognition (ICPR 2010)'
p432
aS'Video Analytics'
p433
aa(lp434
S"Pesarin A., Calanca P., Murino V., Cristani M. (2010) A Generative Score Space for Statistical Dialog Characterization in Social Signalling, Lecture Notes in Computer Science, vol. 6218, pp.  630-639, International Workshop on Structural, Syntactic, and Statistical Pattern Recognition (SSPR&SPR'10), Springer Berlin / Heidelberg"
p435
aS'Social Signal Processing'
p436
aa(lp437
S'Setti F., De Cecco M., Del Bue A. (2010) A Multi-View Stereo System for Articulated Motion Analysis, pp. 367-372, 5th International Conference on Computer Vision Theory and Applications (VISAPP 2010), INSTICC Press'
p438
aS'3D Modeling and Analysis'
p439
aa(lp440
S'Tosato D., Farenzena M., Cristani M., Murino V. (2010) A Re-evaluation of Pedestrian Detection on Riemannian Manifolds, pp. 3308 - 3311, 20th International Conference on Pattern Recognition (ICPR 2010), IEEE'
p441
aS'Video Analytics'
p442
aa(lp443
S'Del Bue A. (2010) Adaptive Metric Registration of 3D Models to Non-rigid Image Trajectories, Lecture Notes in Computer Science, vol. 6313, pp. 87-100, 11th European Conference on Computer Vision (ECCV 2010), Springer, 978-3-540-38625-4'
p444
aS'3D Modeling and Analysis'
p445
aa(lp446
S'Martelli S., Tosato D., Farenzena M., Cristani M., Murino V. (2010) An FPGA-based Classification Architecture on Riemannian Manifolds, pp. 215-220, 2010 DEXA Workshop on Interactive Multimodal Pattern Recognition in Embedded SystemS, IEEE Computer Society, Bilbao, Spain'
p447
aS'Machine Learning'
p448
aa(lp449
S'Bicego M., Lovato P., Ferrarini A., Delledonne M. (2010) Biclustering of Expression Microarray Data with Topic Models, pp. 2728-2731, 20th International Conference on Pattern Recognition (ICPR 2010), IEEE Computer Society'
p450
aS'Other works'
p451
aa(lp452
S'Del Bue A., Xavier J., Agapito L., Paladini M. (2010) Bilinear Factorization via Augmented Lagrange Multipliers, Lecture Notes in Computer Science, vol. 6314, pp. 283-296, 11th European Conference on Computer Vision (ECCV 2010), Springer, 978-3-540-38625-4'
p453
aS'3D Modeling and Analysis'
p454
aa(lp455
S'Perina A., Lovato P., Murino V., Bicego M. (2010) Biologically-aware Latent Dirichlet Allocation (BaLDA) for the Classification of Expression Microarray, Lecture Notes on Bioinformatics, vol. 6282, pp. 230-241, 5th IAPR International Conference on Pattern Recognition in Bioinformatics (PRIB 2010), Springer, Nijmegen, Netherland'
p456
aS'Other works'
p457
aa(lp458
S'Castellani U., Perina A., Murino V., Bellani M., Rambaldelli G., Tansella M., Brambilla P. (2010) Brain Morphometry by Probabilistic Latent Semantic Analysis, Lecture Notes in Computer Science, vol. 6362, pp. 177-184, Medical Image Computing and Computer-Assisted Intervention (MICCAI 2010), Springer Berlin / Heidelberg, Beijing - China, 978-3-540-38625-4'
p459
aS'Structural and Functional Brain Connectivity Analysis'
p460
aa(lp461
S'Bazzani L., Cristani M., Murino V. (2010) Collaborative particle filters for group tracking, pp. 837 840, 17th IEEE International Conference on Image Processing (ICIP 2010), IEEE'
p462
aS'Social Signal Processing'
p463
aa(lp464
S'Bicego M., Perina A., Murino V., Martins A., Aguiar P. M. Q., Figueiredo M. (2010) Combining free energy score spaces with information theoretic kernels: Application to scene classification, pp.  2661-2664, 17th IEEE International Conference on Image Processing (ICIP 2010)'
p465
aS'Machine Learning'
p466
aa(lp467
S'Ulas A., Duin R. P. W., Castellani U., Loog M., Bicego M., Murino V., Bellani M., Cerruti S., Tansella M., Brambilla P. (2010) Dissimilarity-Based Detection of Schizophrenia, pp. 32 - 35, First Workshop on Brain Decoding: Pattern Recognition Challenges in Neuroimaging, Istanbul'
p468
aS'Structural and Functional Brain Connectivity Analysis'
p469
aa(lp470
S'Carli A., Castellani U., Bicego M., Murino V. (2010) Dissimilarity-based representation for local parts, pp. 299-303, 2nd International Workshop on Cognitive Information Processing (CIP 2010)'
p471
aS'Video Analytics'
p472
aa(lp473
S'Bicego M., Lovato P., Oliboni B., Perina A. (2010) Expression microarray classification using topic models, pp. 1516-1520, 25th Symposium On Applied Computing (SAC 2010), ACM, Sierre, Switzerland'
p474
aS'Other works'
p475
aa(lp476
S"Martins A., Bicego M., Murino V., Aguiar P. M. Q., Figueiredo M. (2010) Information Theoretical Kernels for Generative Embeddings Based on Hidden Markov Models, Lecture Notes in Computer Science, vol. 6218, pp. 463-472, International Workshop on Structural, Syntactic, and Statistical Pattern Recognition (SSPR&SPR'10), Springer, 978-3-540-38625-4"
p477
aS'Machine Learning'
p478
aa(lp479
S'Tosato D., Farenzena M., Cristani M., Spera M., Murino V. (2010) Multi-class Classification on Riemannian Manifolds for Video Surveillance, Lecture Notes in Computer Science, vol. 6312, pp.  378-391, 11th European Conference on Computer Vision (ECCV 2010), Springer-Verlag, 978-3-540-38625-4'
p480
aS'Machine Learning'
p481
aa(lp482
S'Bazzani L., Cristani M., Perina A., Farenzena M., Murino V. (2010) Multiple-shot Person Re-identification by HPE signature, 20th International Conference on Pattern Recognition (ICPR 2010), IEEE'
p483
aS'Video Analytics'
p484
aa(lp485
S'Carli A., Bicego M., Baldo S., Murino V. (2010) Nonlinear mappings for generative kernels on latent variable models, pp. 2134-2137, 20th International Conference on Pattern Recognition (ICPR 2010), IEEE'
p486
aS'Machine Learning'
p487
aa(lp488
S'Perina A., Jojic N., Castellani U., Cristani M., Murino V. (2010) Object recognition with hierarchical stel models, Lecture Notes in Computer Science, vol. 6316, pp. 15-28, 11th European Conference on Computer Vision (ECCV 2010), Springer-Verlag, 978-3-540-38625-4'
p489
aS'Machine Learning'
p490
aa(lp491
S'Tosato D., Farenzena M., Cristani M., Murino V. (2010) Part-based human detection on Riemannian manifolds, pp. 3469 - 3472, 17th IEEE International Conference on Image Processing (ICIP 2010), IEEE'
p492
aS'Video Analytics'
p493
aa(lp494
S'Farenzena M., Bazzani L., Perina A., Murino V., Cristani M. (2010) Person Re-Identification by Symmetry-Driven Accumulation of Local Features, pp. 2360-2367, 23rd IEEE Conference on Computer Vision and Pattern Recognition (CVPR 2010), IEEE, San Francisco, USA'
p495
aS'Video Analytics'
p496
aa(lp497
S'Fayad J., Agapito L., Del Bue A. (2010) Piecewise Quadratic Reconstruction of Non-Rigid Surfaces from Monocular Sequences, Lecture Notes in Computer Science, vol. 6314, pp. 297-310, 11th European Conference on Computer Vision (ECCV 2010), Springer, 978-3-540-38625-4'
p498
aS'3D Modeling and Analysis'
p499
aa(lp500
S'Cristani M., Murino V., Vinciarelli A. (2010) Socially Intelligent Surveillance and Monitoring: Analysing Social Dimensions of Physical Space, pp. 51-58, 1st IEEE International Workshop on Socially Intelligent Surveillanceand Monitoring (SISM 2010), IEEE, San Francisco, USA'
p501
aS'Social Signal Processing'
p502
aa(lp503
S"Jojic N., Perina A., Murino V. (2010) Structural Epitome: A way to summarize one's visual experience, Neural Information Processing Systems (NIPS 2010), Vancouver, Canada"
p504
aS'Structural and Functional Brain Connectivity Analysis'
p505
aa(lp506
S'Cristani M., Pesarin A., Drioli C., Murino V., Roda A., Grapulin M., Sebe N. (2010) Toward an automatically generated soundtrack from low-level cross-modal correlations for automotive scenarios, pp. 551-560, ACM International Conference on Multimedia (MM 2010), ACM'
p507
aS'Other works'
p508
aa(lp509
S'Cheng D. S., Bicego M., Castellani U., Cristani M., Cerruti S., Bellani M., Rambaldelli G., Atzori M., Brambilla P., Murino V. (2009) - PROBLEMA AFF - A hybrid generative/discriminative method for classification of regions of interest in schizophrenia brain mri, pp. 174-184, MICCAI Workshop on Probabilistic Models for Medical Image Analysis (PMMIA 2009), London, UK'
p510
aS'Structural and Functional Brain Connectivity Analysis'
p511
aa(lp512
S'Perina A., Cristani M., Castellani U., Murino V., Jojic N. (2009) A hybrid generative/discriminative classification framework based on free-energy terms, pp. 2058 -2065, 12th International Conference on Computer Vision (ICCV 2009), Kyoto, Japan'
p513
aS'Machine Learning'
p514
aa(lp515
S'Perina A., Cristani M., Castellani U., Murino V. (2009) A New Generative Feature Set Based on Entropy Distance for Discriminative Classification, Lecture Notes in Computer Science, vol. 5716, pp. 199-208, 15th International Conference on Image Analysis and Processing (ICIAP 2009), Springer, Salerno, Italy, 978-3-540-38625-4'
p516
aS'Machine Learning'
p517
aa(lp518
S'Bicego M., Cristani M., Murino V., Pekalska E., Duin R. P. W. (2009) Clustering-Based Construction of Hidden Markov Models for Generative Kernels, Lecture Notes in Computer Science, vol. 5681, pp. 466-479, 7th International Conference on Energy Minimization Methods in Computer Vision and Pattern Recognition (EMMCVPR 2009), Springer, Bonn, Germany, 978-3-540-38625-4'
p519
aS'Machine Learning'
p520
aa(lp521
S'Perina A., Cristani M., Castellani U., Murino V., Jojic N. (2009) Free energy score space, Neural Information Processing Systems (NIPS 2009), Vancouver, Canada'
p522
aS'Structural and Functional Brain Connectivity Analysis'
p523
aa(lp524
S'Carli A., Bicego M., Baldo S., Murino V. (2009) Non-linear generative embeddings for kernels on Latent Variable Models, pp. 154, 12th International Conference on Computer Vision - Workshop on Subspace Methods (ICCV 2009), Kyoto, Japan'
p525
aS'Machine Learning'
p526
aa(lp527
S'Bazzani L., Cristani M., Bicego M., Murino V. (2009) Online subjective feature selection for occlusion management in tracking applications, pp. 3617-3620, 2009 IEEE International Conference on Image Processing (ICIP 2009), IEEE'
p528
aS'Video Analytics'
p529
aa(lp530
S'Farenzena M., Tavano A., Bazzani L., Tosato D., Paggetti G., Menegaz G., Murino V., Cristani M.  (2009) Social Interactions by Visual Focus Of Attention in a three-dimensional environment, Workshop on Pattern Recognition and Artificial Intelligence for Human Behaviour Analysis (PRAI*HBA 2009)'
p531
aS'Social Signal Processing'
p532
aa(lp533
S'Jojic N., Perina A., Cristani M., Murino V., Frey B. (2009) Stel component analysis: Modeling spatial correlations in image class structure, pp. 2044-2051, IEEE Conference on Computer Vision and Pattern Recognition, 2009, Miami, FL'
p534
aS'Machine Learning'
p535
aa(lp536
S'Farenzena M., Bazzani L., Murino V., Cristani M. (2009) Towards a Subject-Centered Analysis for Automated Video Surveillance, Lecture Notes in Computer Science, vol. 5716, pp. 481 - 489, 15h International Conference on Image Analysis and Processing (ICIAP 2009), Springer, 978-3-540-38625-4'
p537
aS'Video Analytics'
p538
aa(lp539
S'Hennig S., Szekely E., Carson-Berndsen J., Chellali R. (2012) Listener evaluation of an expressiveness scale in speech synthesis for conversational phrases: implications for AAC, 15th Biennial Conference of the International Society for augmentative and Alternative Communication (ISAAC 2012), Pittsburg, USA'
p540
aS'Other works'
p541
aa(lp542
S'Maccione A., Ullo S., Simi A., Nieus T., Sona D., Del Bue A., Murino V., Berdondini L. (2012) Structural and functional identification of sub-networks in dissociated neuronal cultures: an automated multimodal analysis combining high density MEA and fluorescence imaging, 8th International Meeting on Substrate-Integrated Microelectrode Arrays, Reutlingen, Germany'
p543
aS'In-Vitro Neuronal Network Analysis'
p544
aa(lp545
S'Naceri A., Chellali R. (2012) The Effect of Isolated Disparity on Depth Perception in Real and Virtual Environments, pp. 102-103, IEEE Virtual Reality Conference 2012, Orange County, CA, USA'
p546
aS'Other works'
p547
aa(lp548
S'Maccione A., Ullo S., Simi A., Del Bue A., Petrini E. M., Barberis A., Murino V., Berdondini L. (2011) Dissecting the orchestrated electrical activity in neuronal networks: a multimodal approach combining high density MEAs with fluorescence imaging, 41st Annual Meeting of the Society for Neuroscience (Neuroscience 2011), Washington, DC, USA'
p549
aS'Structural and Functional Brain Connectivity Analysis'
p550
aa(lp551
S'Sona D., Avesani P., Magon S., Basso G., Miceli G. (2011) Pairwise Analysis for Longitudinal fMRI Studies'
p552
aS'Machine Learning'
p553
aa(lp554
S'Torre B., Bicego M., Cristani M., Murino V., Diaspro A., Cingolani R. (2011) Principal Component Analysis in Dynamic Force Spectroscopy: an easy method to extract compositional information in textured sample, 3rd Multifrequency AFM Conference, Madrid, Spain'
p555
aS'Other works'
p556
aa.